target datalayout = "e-m:e-p270:32:32-p271:32:32-p272:64:64-i64:64-i128:128-f80:128-n8:16:32:64-S128"
target triple = "x86_64-pc-linux-gnu"

%struct.Vec_Int_t_ = type { i32, i32, ptr }

; Function Attrs: nounwind uwtable
define internal i32 @Vec_IntEntryLast(ptr noundef %0) #0 {
  %2 = alloca ptr, align 8
  store ptr %0, ptr %2, align 8
  %3 = load ptr, ptr %2, align 8
  %4 = getelementptr inbounds %struct.Vec_Int_t_, ptr %3, i32 0, i32 2
  %5 = load ptr, ptr %4, align 8
  %6 = load ptr, ptr %2, align 8
  %7 = getelementptr inbounds %struct.Vec_Int_t_, ptr %6, i32 0, i32 1
  %8 = load i32, ptr %7, align 4
  %9 = sub nsw i32 %8, 1
  %10 = sext i32 %9 to i64
  %11 = getelementptr inbounds i32, ptr %5, i64 %10
  %12 = load i32, ptr %11, align 4
  ret i32 %12
}

; Function Attrs: nounwind uwtable
define internal i32 @Vec_IntSize(ptr noundef %0) #0 {
  %2 = alloca ptr, align 8
  store ptr %0, ptr %2, align 8
  %3 = load ptr, ptr %2, align 8
  %4 = getelementptr inbounds %struct.Vec_Int_t_, ptr %3, i32 0, i32 1
  %5 = load i32, ptr %4, align 4
  ret i32 %5
}

; Function Attrs: nounwind uwtable
define i32 @Gia_ResubVarNum(ptr noundef %0) #0 {
  %2 = alloca i32, align 4
  %3 = alloca ptr, align 8
  store ptr %0, ptr %3, align 8
  %4 = load ptr, ptr %3, align 8
  %5 = call i32 @Vec_IntSize(ptr noundef %4)
  %6 = icmp eq i32 %5, 1
  br i1 %6, label %7, label %12

7:                                                ; preds = %1
  %8 = load ptr, ptr %3, align 8
  %9 = call i32 @Vec_IntEntryLast(ptr noundef %8)
  %10 = icmp sge i32 %9, 2
  %11 = zext i1 %10 to i32
  store i32 %11, ptr %2, align 4
  br label %21

12:                                               ; preds = %1
  %13 = load ptr, ptr %3, align 8
  %14 = call i32 @Vec_IntEntryLast(ptr noundef %13)
  %15 = sdiv i32 %14, 2
  %16 = load ptr, ptr %3, align 8
  %17 = call i32 @Vec_IntSize(ptr noundef %16)
  %18 = sdiv i32 %17, 2
  %19 = sub nsw i32 %15, %18
  %20 = sub nsw i32 %19, 1
  store i32 %20, ptr %2, align 4
  br label %21

21:                                               ; preds = %12, %7
  %22 = load i32, ptr %2, align 4
  ret i32 %22
}