; Function Attrs: mustprogress nofree norecurse nosync nounwind willreturn memory(read, inaccessiblemem: none) uwtable
define range(i32 -2147483648, 2147483647) i32 @Gia_ResubVarNum(ptr noundef readonly captures(none) %0) local_unnamed_addr #0 {
  %2 = getelementptr i8, ptr %0, i64 4
  %.val = load i32, ptr %2, align 4
  %3 = icmp eq i32 %.val, 1
  %4 = getelementptr i8, ptr %0, i64 8
  %.val6 = load ptr, ptr %4, align 8
  br i1 %3, label %5, label %9

5:                                                ; preds = %1
  %6 = load i32, ptr %.val6, align 4
  %7 = icmp sgt i32 %6, 1
  %8 = zext i1 %7 to i32
  br label %17

9:                                                ; preds = %1
  %10 = sext i32 %.val to i64
  %11 = getelementptr i32, ptr %.val6, i64 %10
  %12 = getelementptr i8, ptr %11, i64 -4
  %13 = load i32, ptr %12, align 4
  %14 = sdiv i32 %13, 2
  %.neg = sdiv i32 %.val, -2
  %15 = add nsw i32 %.neg, -1
  %16 = add nsw i32 %15, %14
  br label %17

17:                                               ; preds = %9, %5
  %.0 = phi i32 [ %8, %5 ], [ %16, %9 ]
  ret i32 %.0
}